target datalayout = "e-m:e-p270:32:32-p271:32:32-p272:64:64-i64:64-i128:128-f80:128-n8:16:32:64-S128"
target triple = "x86_64-pc-linux-gnu"

%struct.UConverter = type { ptr, ptr, ptr, ptr, ptr, ptr, ptr, i32, i8, i8, i8, i8, i8, [7 x i8], i32, i32, i32, i32, i8, i8, i8, i8, i8, i8, i8, i8, [8 x i8], [32 x i8], [2 x i16], [2 x i16], [32 x i16], i32, [19 x i16], [31 x i8], i8, i8, i8, i32 }
%struct.UConverterSharedData = type { i32, i32, ptr, ptr, i8, i8, ptr, i32, %struct.UConverterMBCSTable }
%struct.UConverterMBCSTable = type { i8, i8, i8, i32, ptr, ptr, ptr, ptr, ptr, ptr, [64 x i16], ptr, ptr, i32, i8, i8, i8, i16, i32, ptr, ptr, ptr, ptr }

; Function Attrs: inlinehint mustprogress uwtable
define internal void @_ZL16ucnv_extWriteToUP10UConverterPKijPPDsPKDsPPiiP10UErrorCode(ptr noundef %0, ptr noundef %1, i32 noundef %2, ptr noundef %3, ptr noundef %4, ptr noundef %5, i32 noundef %6, ptr noundef %7) #2 {
  %9 = alloca ptr, align 8
  %10 = alloca ptr, align 8
  %11 = alloca i32, align 4
  %12 = alloca ptr, align 8
  %13 = alloca ptr, align 8
  %14 = alloca ptr, align 8
  %15 = alloca i32, align 4
  %16 = alloca ptr, align 8
  store ptr %0, ptr %9, align 8, !tbaa !3
  store ptr %1, ptr %10, align 8, !tbaa !8
  store i32 %2, ptr %11, align 4, !tbaa !10
  store ptr %3, ptr %12, align 8, !tbaa !17
  store ptr %4, ptr %13, align 8, !tbaa !19
  store ptr %5, ptr %14, align 8, !tbaa !21
  store i32 %6, ptr %15, align 4, !tbaa !10
  store ptr %7, ptr %16, align 8, !tbaa !24
  %17 = load i32, ptr %11, align 4, !tbaa !10
  %18 = icmp ule i32 %17, 3145727
  br i1 %18, label %19, label %28

19:                                               ; preds = %8
  %20 = load ptr, ptr %9, align 8, !tbaa !3
  %21 = load i32, ptr %11, align 4, !tbaa !10
  %22 = sub i32 %21, 2031616
  %23 = load ptr, ptr %12, align 8, !tbaa !17
  %24 = load ptr, ptr %13, align 8, !tbaa !19
  %25 = load ptr, ptr %14, align 8, !tbaa !21
  %26 = load i32, ptr %15, align 4, !tbaa !10
  %27 = load ptr, ptr %16, align 8, !tbaa !24
  call void @ucnv_toUWriteCodePoint_77(ptr noundef %20, i32 noundef %22, ptr noundef %23, ptr noundef %24, ptr noundef %25, i32 noundef %26, ptr noundef %27)
  br label %48

28:                                               ; preds = %8
  %29 = load ptr, ptr %9, align 8, !tbaa !3
  %30 = load ptr, ptr %10, align 8, !tbaa !8
  %31 = load ptr, ptr %10, align 8, !tbaa !8
  %32 = getelementptr inbounds nuw i32, ptr %31, i64 3
  %33 = load i32, ptr %32, align 4, !tbaa !10
  %34 = sext i32 %33 to i64
  %35 = getelementptr inbounds i8, ptr %30, i64 %34
  %36 = load i32, ptr %11, align 4, !tbaa !10
  %37 = and i32 %36, 262143
  %38 = zext i32 %37 to i64
  %39 = getelementptr inbounds nuw i16, ptr %35, i64 %38
  %40 = load i32, ptr %11, align 4, !tbaa !10
  %41 = lshr i32 %40, 18
  %42 = sub i32 %41, 12
  %43 = load ptr, ptr %12, align 8, !tbaa !17
  %44 = load ptr, ptr %13, align 8, !tbaa !19
  %45 = load ptr, ptr %14, align 8, !tbaa !21
  %46 = load i32, ptr %15, align 4, !tbaa !10
  %47 = load ptr, ptr %16, align 8, !tbaa !24
  call void @ucnv_toUWriteUChars_77(ptr noundef %29, ptr noundef %39, i32 noundef %42, ptr noundef %43, ptr noundef %44, ptr noundef %45, i32 noundef %46, ptr noundef %47)
  br label %48

48:                                               ; preds = %28, %19
  ret void
}

; Function Attrs: mustprogress uwtable
define signext i8 @ucnv_extInitialMatchToU_77(ptr noundef %0, ptr noundef %1, i32 noundef %2, ptr noundef %3, ptr noundef %4, ptr noundef %5, ptr noundef %6, ptr noundef %7, i32 noundef %8, i8 noundef signext %9, ptr noundef %10) #0 {
  %12 = alloca i8, align 1
  %13 = alloca ptr, align 8
  %14 = alloca ptr, align 8
  %15 = alloca i32, align 4
  %16 = alloca ptr, align 8
  %17 = alloca ptr, align 8
  %18 = alloca ptr, align 8
  %19 = alloca ptr, align 8
  %20 = alloca ptr, align 8
  %21 = alloca i32, align 4
  %22 = alloca i8, align 1
  %23 = alloca ptr, align 8
  %24 = alloca i32, align 4
  %25 = alloca i32, align 4
  %26 = alloca i32, align 4
  %27 = alloca ptr, align 8
  %28 = alloca i32, align 4
  store ptr %0, ptr %13, align 8, !tbaa !3
  store ptr %1, ptr %14, align 8, !tbaa !8
  store i32 %2, ptr %15, align 4, !tbaa !10
  store ptr %3, ptr %16, align 8, !tbaa !12
  store ptr %4, ptr %17, align 8, !tbaa !15
  store ptr %5, ptr %18, align 8, !tbaa !17
  store ptr %6, ptr %19, align 8, !tbaa !19
  store ptr %7, ptr %20, align 8, !tbaa !21
  store i32 %8, ptr %21, align 4, !tbaa !10
  store i8 %9, ptr %22, align 1, !tbaa !23
  store ptr %10, ptr %23, align 8, !tbaa !24
  call void @llvm.lifetime.start.p0(i64 4, ptr %24) #7
  store i32 0, ptr %24, align 4, !tbaa !10
  call void @llvm.lifetime.start.p0(i64 4, ptr %25) #7
  %29 = load ptr, ptr %14, align 8, !tbaa !8
  %30 = load ptr, ptr %13, align 8, !tbaa !3
  %31 = getelementptr inbounds nuw %struct.UConverter, ptr %30, i32 0, i32 6
  %32 = load ptr, ptr %31, align 8, !tbaa !25
  %33 = getelementptr inbounds nuw %struct.UConverterSharedData, ptr %32, i32 0, i32 8
  %34 = getelementptr inbounds nuw %struct.UConverterMBCSTable, ptr %33, i32 0, i32 14
  %35 = load i8, ptr %34, align 4, !tbaa !29
  %36 = zext i8 %35 to i32
  %37 = icmp eq i32 %36, 12
  br i1 %37, label %38, label %44

38:                                               ; preds = %11
  %39 = load ptr, ptr %13, align 8, !tbaa !3
  %40 = getelementptr inbounds nuw %struct.UConverter, ptr %39, i32 0, i32 15
  %41 = load i32, ptr %40, align 4, !tbaa !36
  %42 = trunc i32 %41 to i8
  %43 = sext i8 %42 to i32
  br label %54

44:                                               ; preds = %11
  %45 = load ptr, ptr %13, align 8, !tbaa !3
  %46 = getelementptr inbounds nuw %struct.UConverter, ptr %45, i32 0, i32 6
  %47 = load ptr, ptr %46, align 8, !tbaa !25
  %48 = getelementptr inbounds nuw %struct.UConverterSharedData, ptr %47, i32 0, i32 8
  %49 = getelementptr inbounds nuw %struct.UConverterMBCSTable, ptr %48, i32 0, i32 14
  %50 = load i8, ptr %49, align 4, !tbaa !29
  %51 = zext i8 %50 to i32
  %52 = icmp eq i32 %51, 219
  %53 = select i1 %52, i32 1, i32 -1
  br label %54

54:                                               ; preds = %44, %38
  %55 = phi i32 [ %43, %38 ], [ %53, %44 ]
  %56 = trunc i32 %55 to i8
  %57 = load ptr, ptr %13, align 8, !tbaa !3
  %58 = getelementptr inbounds nuw %struct.UConverter, ptr %57, i32 0, i32 13
  %59 = getelementptr inbounds [7 x i8], ptr %58, i64 0, i64 0
  %60 = load i32, ptr %15, align 4, !tbaa !10
  %61 = load ptr, ptr %16, align 8, !tbaa !12
  %62 = load ptr, ptr %61, align 8, !tbaa !15
  %63 = load ptr, ptr %17, align 8, !tbaa !15
  %64 = load ptr, ptr %16, align 8, !tbaa !12
  %65 = load ptr, ptr %64, align 8, !tbaa !15
  %66 = ptrtoint ptr %63 to i64
  %67 = ptrtoint ptr %65 to i64
  %68 = sub i64 %66, %67
  %69 = trunc i64 %68 to i32
  %70 = load ptr, ptr %13, align 8, !tbaa !3
  %71 = getelementptr inbounds nuw %struct.UConverter, ptr %70, i32 0, i32 11
  %72 = load i8, ptr %71, align 1, !tbaa !37
  %73 = load i8, ptr %22, align 1, !tbaa !23
  %74 = call noundef i32 @_ZL16ucnv_extMatchToUPKiaPKciS2_iPjaa(ptr noundef %29, i8 noundef signext %56, ptr noundef %59, i32 noundef %60, ptr noundef %62, i32 noundef %69, ptr noundef %24, i8 noundef signext %72, i8 noundef signext %73)
  store i32 %74, ptr %25, align 4, !tbaa !10
  %75 = load i32, ptr %25, align 4, !tbaa !10
  %76 = icmp sgt i32 %75, 0
  br i1 %76, label %77, label %93

77:                                               ; preds = %54
  %78 = load i32, ptr %25, align 4, !tbaa !10
  %79 = load i32, ptr %15, align 4, !tbaa !10
  %80 = sub nsw i32 %78, %79
  %81 = load ptr, ptr %16, align 8, !tbaa !12
  %82 = load ptr, ptr %81, align 8, !tbaa !15
  %83 = sext i32 %80 to i64
  %84 = getelementptr inbounds i8, ptr %82, i64 %83
  store ptr %84, ptr %81, align 8, !tbaa !15
  %85 = load ptr, ptr %13, align 8, !tbaa !3
  %86 = load ptr, ptr %14, align 8, !tbaa !8
  %87 = load i32, ptr %24, align 4, !tbaa !10
  %88 = load ptr, ptr %18, align 8, !tbaa !17
  %89 = load ptr, ptr %19, align 8, !tbaa !19
  %90 = load ptr, ptr %20, align 8, !tbaa !21
  %91 = load i32, ptr %21, align 4, !tbaa !10
  %92 = load ptr, ptr %23, align 8, !tbaa !24
  call void @_ZL16ucnv_extWriteToUP10UConverterPKijPPDsPKDsPPiiP10UErrorCode(ptr noundef %85, ptr noundef %86, i32 noundef %87, ptr noundef %88, ptr noundef %89, ptr noundef %90, i32 noundef %91, ptr noundef %92)
  store i8 1, ptr %12, align 1
  store i32 1, ptr %26, align 4
  br label %149

93:                                               ; preds = %54
  %94 = load i32, ptr %25, align 4, !tbaa !10
  %95 = icmp slt i32 %94, 0
  br i1 %95, label %96, label %148

96:                                               ; preds = %93
  call void @llvm.lifetime.start.p0(i64 8, ptr %27) #7
  call void @llvm.lifetime.start.p0(i64 4, ptr %28) #7
  %97 = load ptr, ptr %13, align 8, !tbaa !3
  %98 = getelementptr inbounds nuw %struct.UConverter, ptr %97, i32 0, i32 13
  %99 = getelementptr inbounds [7 x i8], ptr %98, i64 0, i64 0
  store ptr %99, ptr %27, align 8, !tbaa !15
  %100 = load i32, ptr %15, align 4, !tbaa !10
  %101 = trunc i32 %100 to i8
  %102 = load ptr, ptr %13, align 8, !tbaa !3
  %103 = getelementptr inbounds nuw %struct.UConverter, ptr %102, i32 0, i32 36
  store i8 %101, ptr %103, align 1, !tbaa !38
  store i32 0, ptr %28, align 4, !tbaa !10
  br label %104

104:                                              ; preds = %117, %96
  %105 = load i32, ptr %28, align 4, !tbaa !10
  %106 = load i32, ptr %15, align 4, !tbaa !10
  %107 = icmp slt i32 %105, %106
  br i1 %107, label %108, label %120

108:                                              ; preds = %104
  %109 = load ptr, ptr %27, align 8, !tbaa !15
  %110 = getelementptr inbounds nuw i8, ptr %109, i32 1
  store ptr %110, ptr %27, align 8, !tbaa !15
  %111 = load i8, ptr %109, align 1, !tbaa !23
  %112 = load ptr, ptr %13, align 8, !tbaa !3
  %113 = getelementptr inbounds nuw %struct.UConverter, ptr %112, i32 0, i32 33
  %114 = load i32, ptr %28, align 4, !tbaa !10
  %115 = sext i32 %114 to i64
  %116 = getelementptr inbounds [31 x i8], ptr %113, i64 0, i64 %115
  store i8 %111, ptr %116, align 1, !tbaa !23
  br label %117

117:                                              ; preds = %108
  %118 = load i32, ptr %28, align 4, !tbaa !10
  %119 = add nsw i32 %118, 1
  store i32 %119, ptr %28, align 4, !tbaa !10
  br label %104, !llvm.loop !39

120:                                              ; preds = %104
  %121 = load ptr, ptr %16, align 8, !tbaa !12
  %122 = load ptr, ptr %121, align 8, !tbaa !15
  store ptr %122, ptr %27, align 8, !tbaa !15
  %123 = load i32, ptr %25, align 4, !tbaa !10
  %124 = sub nsw i32 0, %123
  store i32 %124, ptr %25, align 4, !tbaa !10
  br label %125

125:                                              ; preds = %138, %120
  %126 = load i32, ptr %28, align 4, !tbaa !10
  %127 = load i32, ptr %25, align 4, !tbaa !10
  %128 = icmp slt i32 %126, %127
  br i1 %128, label %129, label %141

129:                                              ; preds = %125
  %130 = load ptr, ptr %27, align 8, !tbaa !15
  %131 = getelementptr inbounds nuw i8, ptr %130, i32 1
  store ptr %131, ptr %27, align 8, !tbaa !15
  %132 = load i8, ptr %130, align 1, !tbaa !23
  %133 = load ptr, ptr %13, align 8, !tbaa !3
  %134 = getelementptr inbounds nuw %struct.UConverter, ptr %133, i32 0, i32 33
  %135 = load i32, ptr %28, align 4, !tbaa !10
  %136 = sext i32 %135 to i64
  %137 = getelementptr inbounds [31 x i8], ptr %134, i64 0, i64 %136
  store i8 %132, ptr %137, align 1, !tbaa !23
  br label %138

138:                                              ; preds = %129
  %139 = load i32, ptr %28, align 4, !tbaa !10
  %140 = add nsw i32 %139, 1
  store i32 %140, ptr %28, align 4, !tbaa !10
  br label %125, !llvm.loop !41

141:                                              ; preds = %125
  %142 = load ptr, ptr %27, align 8, !tbaa !15
  %143 = load ptr, ptr %16, align 8, !tbaa !12
  store ptr %142, ptr %143, align 8, !tbaa !15
  %144 = load i32, ptr %25, align 4, !tbaa !10
  %145 = trunc i32 %144 to i8
  %146 = load ptr, ptr %13, align 8, !tbaa !3
  %147 = getelementptr inbounds nuw %struct.UConverter, ptr %146, i32 0, i32 35
  store i8 %145, ptr %147, align 2, !tbaa !42
  store i8 1, ptr %12, align 1
  store i32 1, ptr %26, align 4
  call void @llvm.lifetime.end.p0(i64 4, ptr %28) #7
  call void @llvm.lifetime.end.p0(i64 8, ptr %27) #7
  br label %149

148:                                              ; preds = %93
  store i8 0, ptr %12, align 1
  store i32 1, ptr %26, align 4
  br label %149

149:                                              ; preds = %148, %141, %77
  call void @llvm.lifetime.end.p0(i64 4, ptr %25) #7
  call void @llvm.lifetime.end.p0(i64 4, ptr %24) #7
  %150 = load i8, ptr %12, align 1
  ret i8 %150
}