; Function Attrs: mustprogress uwtable
define signext range(i8 0, 2) i8 @ucnv_extInitialMatchToU_77(ptr noundef %0, ptr noundef %1, i32 noundef %2, ptr noundef captures(none) %3, ptr noundef %4, ptr noundef %5, ptr noundef %6, ptr noundef %7, i32 noundef %8, i8 noundef signext %9, ptr noundef %10) local_unnamed_addr #0 {
  %12 = alloca i32, align 4
  call void @llvm.lifetime.start.p0(i64 4, ptr nonnull %12) #7
  store i32 0, ptr %12, align 4, !tbaa !3
  %13 = getelementptr inbounds nuw i8, ptr %0, i64 48
  %14 = load ptr, ptr %13, align 8, !tbaa !7
  %15 = getelementptr inbounds nuw i8, ptr %14, i64 252
  %16 = load i8, ptr %15, align 4, !tbaa !13
  %17 = icmp eq i8 %16, 12
  br i1 %17, label %18, label %22

18:                                               ; preds = %11
  %19 = getelementptr inbounds nuw i8, ptr %0, i64 76
  %20 = load i32, ptr %19, align 4, !tbaa !21
  %sext = shl i32 %20, 24
  %21 = ashr exact i32 %sext, 24
  br label %25

22:                                               ; preds = %11
  %23 = icmp eq i8 %16, -37
  %24 = select i1 %23, i32 1, i32 -1
  br label %25

25:                                               ; preds = %22, %18
  %26 = phi i32 [ %21, %18 ], [ %24, %22 ]
  %27 = trunc nsw i32 %26 to i8
  %28 = getelementptr inbounds nuw i8, ptr %0, i64 65
  %29 = load ptr, ptr %3, align 8, !tbaa !22
  %30 = ptrtoint ptr %4 to i64
  %31 = ptrtoint ptr %29 to i64
  %32 = sub i64 %30, %31
  %33 = trunc i64 %32 to i32
  %34 = call fastcc noundef i32 @_ZL16ucnv_extMatchToUPKiaPKciS2_iPjaa(ptr noundef %1, i8 noundef signext %27, ptr noundef nonnull %28, i32 noundef %2, ptr noundef %29, i32 noundef %33, ptr noundef %12, i8 noundef signext %9)
  %35 = icmp sgt i32 %34, 0
  br i1 %35, label %36, label %54

36:                                               ; preds = %25
  %37 = sub nsw i32 %34, %2
  %38 = sext i32 %37 to i64
  %39 = getelementptr inbounds i8, ptr %29, i64 %38
  store ptr %39, ptr %3, align 8, !tbaa !22
  %40 = load i32, ptr %12, align 4, !tbaa !3
  %41 = icmp ult i32 %40, 3145728
  br i1 %41, label %42, label %44

42:                                               ; preds = %36
  %43 = add nsw i32 %40, -2031616
  tail call void @ucnv_toUWriteCodePoint_77(ptr noundef nonnull %0, i32 noundef %43, ptr noundef %5, ptr noundef %6, ptr noundef %7, i32 noundef %8, ptr noundef %10)
  br label %_ZL16ucnv_extWriteToUP10UConverterPKijPPDsPKDsPPiiP10UErrorCode.exit

44:                                               ; preds = %36
  %45 = getelementptr inbounds nuw i8, ptr %1, i64 12
  %46 = load i32, ptr %45, align 4, !tbaa !3
  %47 = sext i32 %46 to i64
  %48 = getelementptr inbounds i8, ptr %1, i64 %47
  %49 = and i32 %40, 262143
  %50 = zext nneg i32 %49 to i64
  %51 = getelementptr inbounds nuw i16, ptr %48, i64 %50
  %52 = lshr i32 %40, 18
  %53 = add nsw i32 %52, -12
  tail call void @ucnv_toUWriteUChars_77(ptr noundef nonnull %0, ptr noundef %51, i32 noundef %53, ptr noundef %5, ptr noundef %6, ptr noundef %7, i32 noundef %8, ptr noundef %10)
  br label %_ZL16ucnv_extWriteToUP10UConverterPKijPPDsPKDsPPiiP10UErrorCode.exit

54:                                               ; preds = %25
  %55 = icmp slt i32 %34, 0
  br i1 %55, label %56, label %_ZL16ucnv_extWriteToUP10UConverterPKijPPDsPKDsPPiiP10UErrorCode.exit

56:                                               ; preds = %54
  %57 = trunc i32 %2 to i8
  %58 = getelementptr inbounds nuw i8, ptr %0, i64 283
  store i8 %57, ptr %58, align 1, !tbaa !23
  %59 = icmp sgt i32 %2, 0
  br i1 %59, label %.lr.ph, label %._crit_edge

.lr.ph:                                           ; preds = %56
  %60 = getelementptr inbounds nuw i8, ptr %0, i64 250
  %wide.trip.count = zext nneg i32 %2 to i64
  br label %61

61:                                               ; preds = %.lr.ph, %61
  %indvars.iv = phi i64 [ 0, %.lr.ph ], [ %indvars.iv.next, %61 ]
  %.04451 = phi ptr [ %28, %.lr.ph ], [ %62, %61 ]
  %62 = getelementptr inbounds nuw i8, ptr %.04451, i64 1
  %63 = load i8, ptr %.04451, align 1, !tbaa !24
  %64 = getelementptr inbounds nuw [31 x i8], ptr %60, i64 0, i64 %indvars.iv
  store i8 %63, ptr %64, align 1, !tbaa !24
  %indvars.iv.next = add nuw nsw i64 %indvars.iv, 1
  %exitcond.not = icmp eq i64 %indvars.iv.next, %wide.trip.count
  br i1 %exitcond.not, label %._crit_edge.loopexit, label %61, !llvm.loop !25

._crit_edge.loopexit:                             ; preds = %61
  %.pre = load ptr, ptr %3, align 8, !tbaa !22
  br label %._crit_edge

._crit_edge:                                      ; preds = %._crit_edge.loopexit, %56
  %65 = phi ptr [ %29, %56 ], [ %.pre, %._crit_edge.loopexit ]
  %.0.lcssa = phi i32 [ 0, %56 ], [ %2, %._crit_edge.loopexit ]
  %66 = sub nsw i32 0, %34
  %67 = icmp samesign ult i32 %.0.lcssa, %66
  br i1 %67, label %.lr.ph56, label %._crit_edge57

.lr.ph56:                                         ; preds = %._crit_edge
  %68 = getelementptr inbounds nuw i8, ptr %0, i64 250
  %69 = zext nneg i32 %.0.lcssa to i64
  %wide.trip.count65 = zext nneg i32 %66 to i64
  br label %70

70:                                               ; preds = %.lr.ph56, %70
  %indvars.iv61 = phi i64 [ %69, %.lr.ph56 ], [ %indvars.iv.next62, %70 ]
  %.14553 = phi ptr [ %65, %.lr.ph56 ], [ %71, %70 ]
  %71 = getelementptr inbounds nuw i8, ptr %.14553, i64 1
  %72 = load i8, ptr %.14553, align 1, !tbaa !24
  %73 = getelementptr inbounds nuw [31 x i8], ptr %68, i64 0, i64 %indvars.iv61
  store i8 %72, ptr %73, align 1, !tbaa !24
  %indvars.iv.next62 = add nuw nsw i64 %indvars.iv61, 1
  %exitcond66.not = icmp eq i64 %indvars.iv.next62, %wide.trip.count65
  br i1 %exitcond66.not, label %._crit_edge57, label %70, !llvm.loop !27

._crit_edge57:                                    ; preds = %70, %._crit_edge
  %.145.lcssa = phi ptr [ %65, %._crit_edge ], [ %71, %70 ]
  store ptr %.145.lcssa, ptr %3, align 8, !tbaa !22
  %74 = trunc i32 %66 to i8
  %75 = getelementptr inbounds nuw i8, ptr %0, i64 282
  store i8 %74, ptr %75, align 2, !tbaa !28
  br label %_ZL16ucnv_extWriteToUP10UConverterPKijPPDsPKDsPPiiP10UErrorCode.exit

_ZL16ucnv_extWriteToUP10UConverterPKijPPDsPKDsPPiiP10UErrorCode.exit: ; preds = %44, %42, %54, %._crit_edge57
  %.046 = phi i8 [ 1, %._crit_edge57 ], [ 0, %54 ], [ 1, %42 ], [ 1, %44 ]
  call void @llvm.lifetime.end.p0(i64 4, ptr nonnull %12) #7
  ret i8 %.046
}